target datalayout = "e-m:e-p270:32:32-p271:32:32-p272:64:64-i64:64-i128:128-f80:128-n8:16:32:64-S128"
target triple = "x86_64-pc-linux-gnu"

%struct.evp_pkey_st = type { i32, i32, ptr, ptr, ptr, %union.legacy_pkey_st, %union.legacy_pkey_st, %struct.CRYPTO_REF_COUNT, ptr, ptr, i32, i8, %struct.crypto_ex_data_st, ptr, ptr, i64, ptr, i64, %struct.anon }
%union.legacy_pkey_st = type { ptr }
%struct.CRYPTO_REF_COUNT = type { i32 }
%struct.crypto_ex_data_st = type { ptr, ptr }
%struct.anon = type { i32, i32, i32 }
%struct.ossl_param_st = type { ptr, i32, ptr, i64, i64 }

@.str = private unnamed_addr constant [30 x i8] c"../openssl/crypto/evp/p_lib.c\00", align 1
@__func__.EVP_PKEY_get_params = private unnamed_addr constant [20 x i8] c"EVP_PKEY_get_params\00", align 1

; Function Attrs: nounwind uwtable
define i32 @EVP_PKEY_get_params(ptr noundef %0, ptr noundef %1) #0 {
  %3 = alloca i32, align 4
  %4 = alloca ptr, align 8
  %5 = alloca ptr, align 8
  store ptr %0, ptr %4, align 8, !tbaa !3
  store ptr %1, ptr %5, align 8, !tbaa !82
  %6 = load ptr, ptr %4, align 8, !tbaa !3
  %7 = icmp ne ptr %6, null
  br i1 %7, label %8, label %42

8:                                                ; preds = %2
  %9 = load ptr, ptr %4, align 8, !tbaa !3
  %10 = getelementptr inbounds nuw %struct.evp_pkey_st, ptr %9, i32 0, i32 13
  %11 = load ptr, ptr %10, align 8, !tbaa !32
  %12 = icmp ne ptr %11, null
  br i1 %12, label %13, label %24

13:                                               ; preds = %8
  %14 = load ptr, ptr %4, align 8, !tbaa !3
  %15 = getelementptr inbounds nuw %struct.evp_pkey_st, ptr %14, i32 0, i32 13
  %16 = load ptr, ptr %15, align 8, !tbaa !32
  %17 = load ptr, ptr %4, align 8, !tbaa !3
  %18 = getelementptr inbounds nuw %struct.evp_pkey_st, ptr %17, i32 0, i32 14
  %19 = load ptr, ptr %18, align 8, !tbaa !33
  %20 = load ptr, ptr %5, align 8, !tbaa !82
  %21 = call i32 @evp_keymgmt_get_params(ptr noundef %16, ptr noundef %19, ptr noundef %20)
  %22 = icmp sgt i32 %21, 0
  %23 = zext i1 %22 to i32
  store i32 %23, ptr %3, align 4
  br label %43

24:                                               ; preds = %8
  %25 = load ptr, ptr %4, align 8, !tbaa !3
  %26 = getelementptr inbounds nuw %struct.evp_pkey_st, ptr %25, i32 0, i32 0
  %27 = load i32, ptr %26, align 8, !tbaa !29
  %28 = icmp ne i32 %27, 0
  br i1 %28, label %29, label %40

29:                                               ; preds = %24
  %30 = load ptr, ptr %4, align 8, !tbaa !3
  %31 = getelementptr inbounds nuw %struct.evp_pkey_st, ptr %30, i32 0, i32 13
  %32 = load ptr, ptr %31, align 8, !tbaa !32
  %33 = icmp eq ptr %32, null
  br i1 %33, label %34, label %40

34:                                               ; preds = %29
  %35 = load ptr, ptr %4, align 8, !tbaa !3
  %36 = load ptr, ptr %5, align 8, !tbaa !82
  %37 = call i32 @evp_pkey_get_params_to_ctrl(ptr noundef %35, ptr noundef %36)
  %38 = icmp sgt i32 %37, 0
  %39 = zext i1 %38 to i32
  store i32 %39, ptr %3, align 4
  br label %43

40:                                               ; preds = %29, %24
  br label %41

41:                                               ; preds = %40
  br label %42

42:                                               ; preds = %41, %2
  call void @ERR_new()
  call void @ERR_set_debug(ptr noundef @.str, i32 noundef 2459, ptr noundef @__func__.EVP_PKEY_get_params)
  call void (i32, i32, ptr, ...) @ERR_set_error(i32 noundef 6, i32 noundef 163, ptr noundef null)
  store i32 0, ptr %3, align 4
  br label %43

43:                                               ; preds = %42, %34, %13
  %44 = load i32, ptr %3, align 4
  ret i32 %44
}

; Function Attrs: nounwind uwtable
define i32 @EVP_PKEY_get_utf8_string_param(ptr noundef %0, ptr noundef %1, ptr noundef %2, i64 noundef %3, ptr noundef %4) #0 {
  %6 = alloca i32, align 4
  %7 = alloca ptr, align 8
  %8 = alloca ptr, align 8
  %9 = alloca ptr, align 8
  %10 = alloca i64, align 8
  %11 = alloca ptr, align 8
  %12 = alloca [2 x %struct.ossl_param_st], align 16
  %13 = alloca i32, align 4
  %14 = alloca i32, align 4
  %15 = alloca i32, align 4
  %16 = alloca %struct.ossl_param_st, align 8
  %17 = alloca %struct.ossl_param_st, align 8
  store ptr %0, ptr %7, align 8, !tbaa !3
  store ptr %1, ptr %8, align 8, !tbaa !39
  store ptr %2, ptr %9, align 8, !tbaa !39
  store i64 %3, ptr %10, align 8, !tbaa !68
  store ptr %4, ptr %11, align 8, !tbaa !74
  call void @llvm.lifetime.start.p0(i64 80, ptr %12) #8
  call void @llvm.lifetime.start.p0(i64 4, ptr %13) #8
  store i32 0, ptr %13, align 4, !tbaa !8
  call void @llvm.lifetime.start.p0(i64 4, ptr %14) #8
  store i32 0, ptr %14, align 4, !tbaa !8
  %18 = load ptr, ptr %8, align 8, !tbaa !39
  %19 = icmp eq ptr %18, null
  br i1 %19, label %20, label %21

20:                                               ; preds = %5
  store i32 0, ptr %6, align 4
  store i32 1, ptr %15, align 4
  br label %76

21:                                               ; preds = %5
  %22 = getelementptr inbounds [2 x %struct.ossl_param_st], ptr %12, i64 0, i64 0
  call void @llvm.lifetime.start.p0(i64 40, ptr %16) #8
  %23 = load ptr, ptr %8, align 8, !tbaa !39
  %24 = load ptr, ptr %9, align 8, !tbaa !39
  %25 = load i64, ptr %10, align 8, !tbaa !68
  call void @OSSL_PARAM_construct_utf8_string(ptr dead_on_unwind writable sret(%struct.ossl_param_st) align 8 %16, ptr noundef %23, ptr noundef %24, i64 noundef %25)
  call void @llvm.memcpy.p0.p0.i64(ptr align 16 %22, ptr align 8 %16, i64 40, i1 false), !tbaa.struct !71
  call void @llvm.lifetime.end.p0(i64 40, ptr %16) #8
  %26 = getelementptr inbounds [2 x %struct.ossl_param_st], ptr %12, i64 0, i64 1
  call void @llvm.lifetime.start.p0(i64 40, ptr %17) #8
  call void @OSSL_PARAM_construct_end(ptr dead_on_unwind writable sret(%struct.ossl_param_st) align 8 %17)
  call void @llvm.memcpy.p0.p0.i64(ptr align 8 %26, ptr align 8 %17, i64 40, i1 false), !tbaa.struct !71
  call void @llvm.lifetime.end.p0(i64 40, ptr %17) #8
  %27 = load ptr, ptr %7, align 8, !tbaa !3
  %28 = getelementptr inbounds [2 x %struct.ossl_param_st], ptr %12, i64 0, i64 0
  %29 = call i32 @EVP_PKEY_get_params(ptr noundef %27, ptr noundef %28)
  store i32 %29, ptr %13, align 4, !tbaa !8
  %30 = icmp ne i32 %29, 0
  br i1 %30, label %31, label %34

31:                                               ; preds = %21
  %32 = getelementptr inbounds [2 x %struct.ossl_param_st], ptr %12, i64 0, i64 0
  %33 = call i32 @OSSL_PARAM_modified(ptr noundef %32)
  store i32 %33, ptr %14, align 4, !tbaa !8
  br label %34

34:                                               ; preds = %31, %21
  %35 = load i32, ptr %14, align 4, !tbaa !8
  %36 = icmp ne i32 %35, 0
  br i1 %36, label %37, label %45

37:                                               ; preds = %34
  %38 = load ptr, ptr %11, align 8, !tbaa !74
  %39 = icmp ne ptr %38, null
  br i1 %39, label %40, label %45

40:                                               ; preds = %37
  %41 = getelementptr inbounds [2 x %struct.ossl_param_st], ptr %12, i64 0, i64 0
  %42 = getelementptr inbounds nuw %struct.ossl_param_st, ptr %41, i32 0, i32 4
  %43 = load i64, ptr %42, align 16, !tbaa !131
  %44 = load ptr, ptr %11, align 8, !tbaa !74
  store i64 %43, ptr %44, align 8, !tbaa !68
  br label %45

45:                                               ; preds = %40, %37, %34
  %46 = load i32, ptr %14, align 4, !tbaa !8
  %47 = icmp ne i32 %46, 0
  br i1 %47, label %48, label %55

48:                                               ; preds = %45
  %49 = getelementptr inbounds [2 x %struct.ossl_param_st], ptr %12, i64 0, i64 0
  %50 = getelementptr inbounds nuw %struct.ossl_param_st, ptr %49, i32 0, i32 4
  %51 = load i64, ptr %50, align 16, !tbaa !131
  %52 = load i64, ptr %10, align 8, !tbaa !68
  %53 = icmp eq i64 %51, %52
  br i1 %53, label %54, label %55

54:                                               ; preds = %48
  store i32 0, ptr %6, align 4
  store i32 1, ptr %15, align 4
  br label %76

55:                                               ; preds = %48, %45
  %56 = load i32, ptr %14, align 4, !tbaa !8
  %57 = icmp ne i32 %56, 0
  br i1 %57, label %58, label %67

58:                                               ; preds = %55
  %59 = load ptr, ptr %9, align 8, !tbaa !39
  %60 = icmp ne ptr %59, null
  br i1 %60, label %61, label %67

61:                                               ; preds = %58
  %62 = load ptr, ptr %9, align 8, !tbaa !39
  %63 = getelementptr inbounds [2 x %struct.ossl_param_st], ptr %12, i64 0, i64 0
  %64 = getelementptr inbounds nuw %struct.ossl_param_st, ptr %63, i32 0, i32 4
  %65 = load i64, ptr %64, align 16, !tbaa !131
  %66 = getelementptr inbounds nuw i8, ptr %62, i64 %65
  store i8 0, ptr %66, align 1, !tbaa !38
  br label %67

67:                                               ; preds = %61, %58, %55
  %68 = load i32, ptr %13, align 4, !tbaa !8
  %69 = icmp ne i32 %68, 0
  br i1 %69, label %70, label %73

70:                                               ; preds = %67
  %71 = load i32, ptr %14, align 4, !tbaa !8
  %72 = icmp ne i32 %71, 0
  br label %73

73:                                               ; preds = %70, %67
  %74 = phi i1 [ false, %67 ], [ %72, %70 ]
  %75 = zext i1 %74 to i32
  store i32 %75, ptr %6, align 4
  store i32 1, ptr %15, align 4
  br label %76

76:                                               ; preds = %73, %54, %20
  call void @llvm.lifetime.end.p0(i64 4, ptr %14) #8
  call void @llvm.lifetime.end.p0(i64 4, ptr %13) #8
  call void @llvm.lifetime.end.p0(i64 80, ptr %12) #8
  %77 = load i32, ptr %6, align 4
  ret i32 %77
}