; Function Attrs: nounwind uwtable
define range(i32 0, 2) i32 @EVP_PKEY_get_utf8_string_param(ptr noundef %0, ptr noundef %1, ptr noundef %2, i64 noundef %3, ptr noundef writeonly captures(address_is_null) %4) local_unnamed_addr #0 {
  %6 = alloca [2 x %struct.ossl_param_st], align 16
  %7 = alloca %struct.ossl_param_st, align 8
  call void @llvm.lifetime.start.p0(i64 80, ptr nonnull %6) #12
  %8 = icmp eq ptr %1, null
  br i1 %8, label %37, label %9

9:                                                ; preds = %5
  call void @OSSL_PARAM_construct_utf8_string(ptr dead_on_unwind nonnull writable sret(%struct.ossl_param_st) align 8 %6, ptr noundef nonnull %1, ptr noundef %2, i64 noundef %3) #12
  %10 = getelementptr inbounds nuw i8, ptr %6, i64 40
  call void @llvm.lifetime.start.p0(i64 40, ptr nonnull %7) #12
  call void @OSSL_PARAM_construct_end(ptr dead_on_unwind nonnull writable sret(%struct.ossl_param_st) align 8 %7) #12
  call void @llvm.memcpy.p0.p0.i64(ptr noundef nonnull align 8 dereferenceable(40) %10, ptr noundef nonnull align 8 dereferenceable(40) %7, i64 40, i1 false), !tbaa.struct !73
  call void @llvm.lifetime.end.p0(i64 40, ptr nonnull %7) #12
  %.not.i = icmp eq ptr %0, null
  br i1 %.not.i, label %EVP_PKEY_get_params.exit.thread, label %11

11:                                               ; preds = %9
  %12 = getelementptr inbounds nuw i8, ptr %0, i64 96
  %13 = load ptr, ptr %12, align 8, !tbaa !30
  %.not11.i = icmp eq ptr %13, null
  br i1 %.not11.i, label %19, label %14

14:                                               ; preds = %11
  %15 = getelementptr inbounds nuw i8, ptr %0, i64 104
  %16 = load ptr, ptr %15, align 8, !tbaa !33
  %17 = call i32 @evp_keymgmt_get_params(ptr noundef nonnull %13, ptr noundef %16, ptr noundef nonnull %6) #12
  %18 = icmp sgt i32 %17, 0
  br i1 %18, label %23, label %.thread41

19:                                               ; preds = %11
  %20 = load i32, ptr %0, align 8, !tbaa !26
  %.not12.i = icmp eq i32 %20, 0
  br i1 %.not12.i, label %EVP_PKEY_get_params.exit.thread, label %EVP_PKEY_get_params.exit

EVP_PKEY_get_params.exit.thread:                  ; preds = %9, %19
  call void @ERR_new() #12
  call void @ERR_set_debug(ptr noundef nonnull @.str, i32 noundef 2459, ptr noundef nonnull @__func__.EVP_PKEY_get_params) #12
  call void (i32, i32, ptr, ...) @ERR_set_error(i32 noundef 6, i32 noundef 163, ptr noundef null) #12
  br label %.thread41

EVP_PKEY_get_params.exit:                         ; preds = %19
  %21 = call i32 @evp_pkey_get_params_to_ctrl(ptr noundef nonnull %0, ptr noundef nonnull %6) #12
  %22 = icmp sgt i32 %21, 0
  br i1 %22, label %23, label %.thread41

23:                                               ; preds = %EVP_PKEY_get_params.exit, %14
  %24 = call i32 @OSSL_PARAM_modified(ptr noundef nonnull %6) #12
  %25 = icmp ne i32 %24, 0
  %26 = icmp ne ptr %4, null
  %or.cond = and i1 %26, %25
  %27 = getelementptr inbounds nuw i8, ptr %6, i64 32
  %28 = load i64, ptr %27, align 16
  br i1 %or.cond, label %29, label %._crit_edge

29:                                               ; preds = %23
  store i64 %28, ptr %4, align 8, !tbaa !71
  br label %._crit_edge

._crit_edge:                                      ; preds = %23, %29
  %30 = icmp eq i64 %28, %3
  %or.cond24 = select i1 %25, i1 %30, i1 false
  br i1 %or.cond24, label %37, label %31

31:                                               ; preds = %._crit_edge
  %32 = icmp ne ptr %2, null
  %or.cond3 = and i1 %32, %25
  br i1 %or.cond3, label %33, label %.thread41

33:                                               ; preds = %31
  %34 = getelementptr inbounds nuw i8, ptr %2, i64 %28
  store i8 0, ptr %34, align 1, !tbaa !39
  br label %.thread41

.thread41:                                        ; preds = %14, %EVP_PKEY_get_params.exit.thread, %EVP_PKEY_get_params.exit, %33, %31
  %.0343946 = phi i1 [ true, %33 ], [ %25, %31 ], [ false, %EVP_PKEY_get_params.exit ], [ false, %EVP_PKEY_get_params.exit.thread ], [ false, %14 ]
  %.0.shrunk.i27334045 = phi i1 [ true, %33 ], [ true, %31 ], [ false, %EVP_PKEY_get_params.exit ], [ false, %EVP_PKEY_get_params.exit.thread ], [ false, %14 ]
  %35 = and i1 %.0343946, %.0.shrunk.i27334045
  %36 = zext i1 %35 to i32
  br label %37

37:                                               ; preds = %._crit_edge, %5, %.thread41
  %.018 = phi i32 [ %36, %.thread41 ], [ 0, %5 ], [ 0, %._crit_edge ]
  call void @llvm.lifetime.end.p0(i64 80, ptr nonnull %6) #12
  ret i32 %.018
}